target datalayout = "e-m:e-p270:32:32-p271:32:32-p272:64:64-i64:64-i128:128-f80:128-n8:16:32:64-S128"
target triple = "x86_64-pc-linux-gnu"

%struct.dbd_acct_coord_msg_t = type { ptr, ptr }

; Function Attrs: nounwind uwtable
define internal void @_pack_acct_coord_msg(ptr noundef %0, i16 noundef zeroext %1, ptr noundef %2) #0 {
  %4 = alloca ptr, align 8
  %5 = alloca i16, align 2
  %6 = alloca ptr, align 8
  %7 = alloca ptr, align 8
  %8 = alloca ptr, align 8
  %9 = alloca i32, align 4
  %10 = alloca i32, align 4
  store ptr %0, ptr %4, align 8
  store i16 %1, ptr %5, align 2
  store ptr %2, ptr %6, align 8
  call void @llvm.lifetime.start.p0(i64 8, ptr %7) #5
  store ptr null, ptr %7, align 8
  call void @llvm.lifetime.start.p0(i64 8, ptr %8) #5
  store ptr null, ptr %8, align 8
  call void @llvm.lifetime.start.p0(i64 4, ptr %9) #5
  store i32 0, ptr %9, align 4
  %11 = load ptr, ptr %4, align 8
  %12 = getelementptr inbounds nuw %struct.dbd_acct_coord_msg_t, ptr %11, i32 0, i32 0
  %13 = load ptr, ptr %12, align 8
  %14 = icmp ne ptr %13, null
  br i1 %14, label %15, label %20

15:                                               ; preds = %3
  %16 = load ptr, ptr %4, align 8
  %17 = getelementptr inbounds nuw %struct.dbd_acct_coord_msg_t, ptr %16, i32 0, i32 0
  %18 = load ptr, ptr %17, align 8
  %19 = call i32 @list_count(ptr noundef %18)
  store i32 %19, ptr %9, align 4
  br label %20

20:                                               ; preds = %15, %3
  %21 = load i32, ptr %9, align 4
  %22 = load ptr, ptr %6, align 8
  call void @pack32(i32 noundef %21, ptr noundef %22)
  %23 = load i32, ptr %9, align 4
  %24 = icmp ne i32 %23, 0
  br i1 %24, label %25, label %51

25:                                               ; preds = %20
  %26 = load ptr, ptr %4, align 8
  %27 = getelementptr inbounds nuw %struct.dbd_acct_coord_msg_t, ptr %26, i32 0, i32 0
  %28 = load ptr, ptr %27, align 8
  %29 = call ptr @list_iterator_create(ptr noundef %28)
  store ptr %29, ptr %8, align 8
  br label %30

30:                                               ; preds = %48, %25
  %31 = load ptr, ptr %8, align 8
  %32 = call ptr @list_next(ptr noundef %31)
  store ptr %32, ptr %7, align 8
  %33 = icmp ne ptr %32, null
  br i1 %33, label %34, label %49

34:                                               ; preds = %30
  br label %35

35:                                               ; preds = %34
  call void @llvm.lifetime.start.p0(i64 4, ptr %10) #5
  store i32 0, ptr %10, align 4
  %36 = load ptr, ptr %7, align 8
  %37 = icmp ne ptr %36, null
  br i1 %37, label %38, label %43

38:                                               ; preds = %35
  %39 = load ptr, ptr %7, align 8
  %40 = call i64 @strlen(ptr noundef %39) #6
  %41 = trunc i64 %40 to i32
  %42 = add i32 %41, 1
  store i32 %42, ptr %10, align 4
  br label %43

43:                                               ; preds = %38, %35
  %44 = load ptr, ptr %7, align 8
  %45 = load i32, ptr %10, align 4
  %46 = load ptr, ptr %6, align 8
  call void @packmem(ptr noundef %44, i32 noundef %45, ptr noundef %46)
  call void @llvm.lifetime.end.p0(i64 4, ptr %10) #5
  br label %47

47:                                               ; preds = %43
  br label %48

48:                                               ; preds = %47
  br label %30, !llvm.loop !8

49:                                               ; preds = %30
  %50 = load ptr, ptr %8, align 8
  call void @list_iterator_destroy(ptr noundef %50)
  br label %51

51:                                               ; preds = %49, %20
  %52 = load ptr, ptr %4, align 8
  %53 = getelementptr inbounds nuw %struct.dbd_acct_coord_msg_t, ptr %52, i32 0, i32 1
  %54 = load ptr, ptr %53, align 8
  %55 = load i16, ptr %5, align 2
  %56 = load ptr, ptr %6, align 8
  call void @slurmdb_pack_user_cond(ptr noundef %54, i16 noundef zeroext %55, ptr noundef %56)
  call void @llvm.lifetime.end.p0(i64 4, ptr %9) #5
  call void @llvm.lifetime.end.p0(i64 8, ptr %8) #5
  call void @llvm.lifetime.end.p0(i64 8, ptr %7) #5
  ret void
}