; Function Attrs: nounwind uwtable
define internal fastcc void @_pack_acct_coord_msg(ptr noundef readonly captures(none) %0, i16 noundef zeroext %1, ptr noundef %2) unnamed_addr #0 {
  %4 = load ptr, ptr %0, align 8
  %.not = icmp eq ptr %4, null
  br i1 %.not, label %.thread, label %5

.thread:                                          ; preds = %3
  tail call void @pack32(i32 noundef 0, ptr noundef %2) #5
  br label %16

5:                                                ; preds = %3
  %6 = tail call i32 @list_count(ptr noundef nonnull %4) #5
  tail call void @pack32(i32 noundef %6, ptr noundef %2) #5
  %.not18 = icmp eq i32 %6, 0
  br i1 %.not18, label %16, label %7

7:                                                ; preds = %5
  %8 = load ptr, ptr %0, align 8
  %9 = tail call ptr @list_iterator_create(ptr noundef %8) #5
  %10 = tail call ptr @list_next(ptr noundef %9) #5
  %.not1922 = icmp eq ptr %10, null
  br i1 %.not1922, label %._crit_edge, label %.lr.ph

.lr.ph:                                           ; preds = %7, %.lr.ph
  %11 = phi ptr [ %15, %.lr.ph ], [ %10, %7 ]
  %12 = tail call i64 @strlen(ptr noundef nonnull dereferenceable(1) %11) #7
  %13 = trunc i64 %12 to i32
  %14 = add i32 %13, 1
  tail call void @packmem(ptr noundef nonnull %11, i32 noundef %14, ptr noundef %2) #5
  %15 = tail call ptr @list_next(ptr noundef %9) #5
  %.not19 = icmp eq ptr %15, null
  br i1 %.not19, label %._crit_edge, label %.lr.ph, !llvm.loop !10

._crit_edge:                                      ; preds = %.lr.ph, %7
  tail call void @list_iterator_destroy(ptr noundef %9) #5
  br label %16

16:                                               ; preds = %.thread, %._crit_edge, %5
  %17 = getelementptr inbounds nuw i8, ptr %0, i64 8
  %18 = load ptr, ptr %17, align 8
  tail call void @slurmdb_pack_user_cond(ptr noundef %18, i16 noundef zeroext %1, ptr noundef %2) #5
  ret void
}